ccopy_reg
_reconstructor
p0
(csklearn.pipeline
Pipeline
p1
c__builtin__
object
p2
Ntp3
Rp4
(dp5
S'_sklearn_version'
p6
S'0.18.1'
p7
sS'steps'
p8
(lp9
(S'pca'
p10
g0
(csklearn.decomposition.pca
PCA
p11
g2
Ntp12
Rp13
(dp14
S'svd_solver'
p15
S'auto'
p16
sS'iterated_power'
p17
g16
sS'random_state'
p18
Nsg6
g7
sS'whiten'
p19
I00
sS'tol'
p20
F0.0
sS'copy'
p21
I01
sS'n_components'
p22
I2
sbtp23
a(S'clf'
p24
g0
(csklearn.tree.tree
DecisionTreeClassifier
p25
g2
Ntp26
Rp27
(dp28
S'presort'
p29
I00
sS'splitter'
p30
S'best'
p31
sS'tree_'
p32
NsS'n_features_'
p33
NsS'n_outputs_'
p34
NsS'n_classes_'
p35
NsS'min_impurity_split'
p36
F1e-07
sS'classes_'
p37
NsS'max_features_'
p38
NsS'min_samples_leaf'
p39
I1
sS'min_samples_split'
p40
I6
sg18
NsS'criterion'
p41
S'entropy'
p42
sS'min_weight_fraction_leaf'
p43
F0.0
sS'max_leaf_nodes'
p44
NsS'max_features'
p45
Nsg6
g7
sS'max_depth'
p46
NsS'class_weight'
p47
Nsbtp48
asb.